; Function Attrs: nounwind uwtable
define internal void @poly1305_update(ptr noundef %0, ptr noundef %1, i64 noundef %2, ptr noundef %3, i64 noundef %4) #1 {
  %6 = alloca [8 x i8], align 1
  %7 = alloca [8 x i8], align 1
  tail call void @CRYPTO_poly1305_update(ptr noundef %0, ptr noundef %1, i64 noundef %2) #8
  %8 = and i64 %2, 15
  %.not.i = icmp eq i64 %8, 0
  br i1 %.not.i, label %poly1305_update_padded_16.exit, label %9

9:                                                ; preds = %5
  %10 = sub nuw nsw i64 16, %8
  tail call void @CRYPTO_poly1305_update(ptr noundef %0, ptr noundef nonnull @poly1305_update_padded_16.padding, i64 noundef %10) #8
  br label %poly1305_update_padded_16.exit

poly1305_update_padded_16.exit:                   ; preds = %5, %9
  tail call void @CRYPTO_poly1305_update(ptr noundef %0, ptr noundef %3, i64 noundef %4) #8
  %11 = and i64 %4, 15
  %.not.i9 = icmp eq i64 %11, 0
  br i1 %.not.i9, label %poly1305_update_padded_16.exit10, label %12

12:                                               ; preds = %poly1305_update_padded_16.exit
  %13 = sub nuw nsw i64 16, %11
  tail call void @CRYPTO_poly1305_update(ptr noundef %0, ptr noundef nonnull @poly1305_update_padded_16.padding, i64 noundef %13) #8
  br label %poly1305_update_padded_16.exit10

poly1305_update_padded_16.exit10:                 ; preds = %poly1305_update_padded_16.exit, %12
  call void @llvm.lifetime.start.p0(i64 8, ptr nonnull %7) #8
  br label %14

14:                                               ; preds = %14, %poly1305_update_padded_16.exit10
  %indvars.iv.i = phi i64 [ 0, %poly1305_update_padded_16.exit10 ], [ %indvars.iv.next.i, %14 ]
  %.057.i = phi i64 [ %2, %poly1305_update_padded_16.exit10 ], [ %17, %14 ]
  %15 = trunc i64 %.057.i to i8
  %16 = getelementptr inbounds nuw [8 x i8], ptr %7, i64 0, i64 %indvars.iv.i
  store i8 %15, ptr %16, align 1, !tbaa !17
  %17 = lshr i64 %.057.i, 8
  %indvars.iv.next.i = add nuw nsw i64 %indvars.iv.i, 1
  %exitcond.not.i = icmp eq i64 %indvars.iv.next.i, 8
  br i1 %exitcond.not.i, label %poly1305_update_length.exit, label %14, !llvm.loop !18

poly1305_update_length.exit:                      ; preds = %14
  call void @CRYPTO_poly1305_update(ptr noundef %0, ptr noundef nonnull %7, i64 noundef 8) #8
  call void @llvm.lifetime.end.p0(i64 8, ptr nonnull %7) #8
  call void @llvm.lifetime.start.p0(i64 8, ptr nonnull %6) #8
  br label %18

18:                                               ; preds = %18, %poly1305_update_length.exit
  %indvars.iv.i11 = phi i64 [ 0, %poly1305_update_length.exit ], [ %indvars.iv.next.i13, %18 ]
  %.057.i12 = phi i64 [ %4, %poly1305_update_length.exit ], [ %21, %18 ]
  %19 = trunc i64 %.057.i12 to i8
  %20 = getelementptr inbounds nuw [8 x i8], ptr %6, i64 0, i64 %indvars.iv.i11
  store i8 %19, ptr %20, align 1, !tbaa !17
  %21 = lshr i64 %.057.i12, 8
  %indvars.iv.next.i13 = add nuw nsw i64 %indvars.iv.i11, 1
  %exitcond.not.i14 = icmp eq i64 %indvars.iv.next.i13, 8
  br i1 %exitcond.not.i14, label %poly1305_update_length.exit15, label %18, !llvm.loop !18

poly1305_update_length.exit15:                    ; preds = %18
  call void @CRYPTO_poly1305_update(ptr noundef %0, ptr noundef nonnull %6, i64 noundef 8) #8
  call void @llvm.lifetime.end.p0(i64 8, ptr nonnull %6) #8
  ret void
}